target datalayout = "e-m:e-p270:32:32-p271:32:32-p272:64:64-i64:64-i128:128-f80:128-n8:16:32:64-S128"
target triple = "x86_64-pc-linux-gnu"

%"class.duckdb_re2::StringPiece" = type { ptr, i64 }

; Function Attrs: mustprogress nounwind uwtable
define linkonce_odr hidden noundef i64 @_ZNK10duckdb_re211StringPiece4sizeEv(ptr noundef nonnull align 8 dereferenceable(16) %0) #0 comdat align 2 {
  %2 = alloca ptr, align 8
  store ptr %0, ptr %2, align 8, !tbaa !39
  %3 = load ptr, ptr %2, align 8
  %4 = getelementptr inbounds nuw %"class.duckdb_re2::StringPiece", ptr %3, i32 0, i32 1
  %5 = load i64, ptr %4, align 8, !tbaa !65
  ret i64 %5
}

; Function Attrs: mustprogress nounwind uwtable
define linkonce_odr hidden noundef ptr @_ZNK10duckdb_re211StringPiece4dataEv(ptr noundef nonnull align 8 dereferenceable(16) %0) #0 comdat align 2 {
  %2 = alloca ptr, align 8
  store ptr %0, ptr %2, align 8, !tbaa !39
  %3 = load ptr, ptr %2, align 8
  %4 = getelementptr inbounds nuw %"class.duckdb_re2::StringPiece", ptr %3, i32 0, i32 0
  %5 = load ptr, ptr %4, align 8, !tbaa !63
  ret ptr %5
}

; Function Attrs: mustprogress uwtable
define hidden noundef i32 @_ZN10duckdb_re23RE211MaxSubmatchERKNS_11StringPieceE(ptr noundef nonnull align 8 dereferenceable(16) %0) #1 align 2 {
  %2 = alloca ptr, align 8
  %3 = alloca i32, align 4
  %4 = alloca ptr, align 8
  %5 = alloca ptr, align 8
  %6 = alloca i32, align 4
  %7 = alloca i32, align 4
  store ptr %0, ptr %2, align 8, !tbaa !39
  call void @llvm.lifetime.start.p0(i64 4, ptr %3) #20
  store i32 0, ptr %3, align 4, !tbaa !3
  call void @llvm.lifetime.start.p0(i64 8, ptr %4) #20
  %8 = load ptr, ptr %2, align 8, !tbaa !39
  %9 = call noundef ptr @_ZNK10duckdb_re211StringPiece4dataEv(ptr noundef nonnull align 8 dereferenceable(16) %8)
  store ptr %9, ptr %4, align 8, !tbaa !31
  call void @llvm.lifetime.start.p0(i64 8, ptr %5) #20
  %10 = load ptr, ptr %4, align 8, !tbaa !31
  %11 = load ptr, ptr %2, align 8, !tbaa !39
  %12 = call noundef i64 @_ZNK10duckdb_re211StringPiece4sizeEv(ptr noundef nonnull align 8 dereferenceable(16) %11)
  %13 = getelementptr inbounds nuw i8, ptr %10, i64 %12
  store ptr %13, ptr %5, align 8, !tbaa !31
  br label %14

14:                                               ; preds = %51, %1
  %15 = load ptr, ptr %4, align 8, !tbaa !31
  %16 = load ptr, ptr %5, align 8, !tbaa !31
  %17 = icmp ult ptr %15, %16
  br i1 %17, label %19, label %18

18:                                               ; preds = %14
  call void @llvm.lifetime.end.p0(i64 8, ptr %5) #20
  call void @llvm.lifetime.end.p0(i64 8, ptr %4) #20
  br label %54

19:                                               ; preds = %14
  %20 = load ptr, ptr %4, align 8, !tbaa !31
  %21 = load i8, ptr %20, align 1, !tbaa !149
  %22 = sext i8 %21 to i32
  %23 = icmp eq i32 %22, 92
  br i1 %23, label %24, label %50

24:                                               ; preds = %19
  %25 = load ptr, ptr %4, align 8, !tbaa !31
  %26 = getelementptr inbounds nuw i8, ptr %25, i32 1
  store ptr %26, ptr %4, align 8, !tbaa !31
  call void @llvm.lifetime.start.p0(i64 4, ptr %6) #20
  %27 = load ptr, ptr %4, align 8, !tbaa !31
  %28 = load ptr, ptr %5, align 8, !tbaa !31
  %29 = icmp ult ptr %27, %28
  br i1 %29, label %30, label %34

30:                                               ; preds = %24
  %31 = load ptr, ptr %4, align 8, !tbaa !31
  %32 = load i8, ptr %31, align 1, !tbaa !149
  %33 = sext i8 %32 to i32
  br label %35

34:                                               ; preds = %24
  br label %35

35:                                               ; preds = %34, %30
  %36 = phi i32 [ %33, %30 ], [ -1, %34 ]
  store i32 %36, ptr %6, align 4, !tbaa !3
  %37 = load i32, ptr %6, align 4, !tbaa !3
  %38 = call i32 @isdigit(i32 noundef %37) #24
  %39 = icmp ne i32 %38, 0
  br i1 %39, label %40, label %49

40:                                               ; preds = %35
  call void @llvm.lifetime.start.p0(i64 4, ptr %7) #20
  %41 = load i32, ptr %6, align 4, !tbaa !3
  %42 = sub nsw i32 %41, 48
  store i32 %42, ptr %7, align 4, !tbaa !3
  %43 = load i32, ptr %7, align 4, !tbaa !3
  %44 = load i32, ptr %3, align 4, !tbaa !3
  %45 = icmp sgt i32 %43, %44
  br i1 %45, label %46, label %48

46:                                               ; preds = %40
  %47 = load i32, ptr %7, align 4, !tbaa !3
  store i32 %47, ptr %3, align 4, !tbaa !3
  br label %48

48:                                               ; preds = %46, %40
  call void @llvm.lifetime.end.p0(i64 4, ptr %7) #20
  br label %49

49:                                               ; preds = %48, %35
  call void @llvm.lifetime.end.p0(i64 4, ptr %6) #20
  br label %50

50:                                               ; preds = %49, %19
  br label %51

51:                                               ; preds = %50
  %52 = load ptr, ptr %4, align 8, !tbaa !31
  %53 = getelementptr inbounds nuw i8, ptr %52, i32 1
  store ptr %53, ptr %4, align 8, !tbaa !31
  br label %14, !llvm.loop !150

54:                                               ; preds = %18
  %55 = load i32, ptr %3, align 4, !tbaa !3
  call void @llvm.lifetime.end.p0(i64 4, ptr %3) #20
  ret i32 %55
}