; Function Attrs: mustprogress nofree norecurse nosync nounwind willreturn memory(read, inaccessiblemem: none) uwtable
define hidden noundef range(i32 0, 80) i32 @_ZN10duckdb_re23RE211MaxSubmatchERKNS_11StringPieceE(ptr noundef nonnull readonly align 8 captures(none) dereferenceable(16) %0) local_unnamed_addr #11 align 2 {
  %2 = load ptr, ptr %0, align 8, !tbaa !29
  %3 = getelementptr inbounds nuw i8, ptr %0, i64 8
  %4 = load i64, ptr %3, align 8, !tbaa !31
  %5 = getelementptr inbounds nuw i8, ptr %2, i64 %4
  %.not = icmp eq i64 %4, 0
  br i1 %.not, label %._crit_edge, label %.lr.ph

._crit_edge:                                      ; preds = %.thread, %1
  %.0.lcssa = phi i32 [ 0, %1 ], [ %.3, %.thread ]
  ret i32 %.0.lcssa

.lr.ph:                                           ; preds = %1, %.thread
  %.028 = phi i32 [ %.3, %.thread ], [ 0, %1 ]
  %.01627 = phi ptr [ %15, %.thread ], [ %2, %1 ]
  %6 = load i8, ptr %.01627, align 1, !tbaa !26
  %7 = icmp eq i8 %6, 92
  br i1 %7, label %8, label %.thread

8:                                                ; preds = %.lr.ph
  %9 = getelementptr inbounds nuw i8, ptr %.01627, i64 1
  %10 = icmp ult ptr %9, %5
  br i1 %10, label %11, label %.thread

11:                                               ; preds = %8
  %12 = load i8, ptr %9, align 1, !tbaa !26
  %.fr = freeze i8 %12
  %13 = sext i8 %.fr to i32
  %14 = add nsw i32 %13, -48
  %isdigit = icmp ult i32 %14, 10
  %spec.select = tail call i32 @llvm.smax.i32(i32 %14, i32 %.028)
  %spec.select25 = select i1 %isdigit, i32 %spec.select, i32 %.028
  br label %.thread

.thread:                                          ; preds = %11, %8, %.lr.ph
  %.117 = phi ptr [ %.01627, %.lr.ph ], [ %9, %8 ], [ %9, %11 ]
  %.3 = phi i32 [ %.028, %.lr.ph ], [ %.028, %8 ], [ %spec.select25, %11 ]
  %15 = getelementptr inbounds nuw i8, ptr %.117, i64 1
  %16 = icmp ult ptr %15, %5
  br i1 %16, label %.lr.ph, label %._crit_edge, !llvm.loop !173
}